target datalayout = "e-m:e-p270:32:32-p271:32:32-p272:64:64-i64:64-i128:128-f80:128-n8:16:32:64-S128"
target triple = "x86_64-pc-linux-gnu"

%"struct.Yosys::RTLIL::Const" = type { i16, i8, %union.anon }
%union.anon = type { %"class.std::__cxx11::basic_string" }
%"class.std::__cxx11::basic_string" = type { %"struct.std::__cxx11::basic_string<char>::_Alloc_hider", i64, %union.anon.3 }
%"struct.std::__cxx11::basic_string<char>::_Alloc_hider" = type { ptr }
%union.anon.3 = type { i64, [8 x i8] }
%"struct.std::_Vector_base" = type { %"struct.std::_Vector_base<Yosys::RTLIL::State, std::allocator<Yosys::RTLIL::State>>::_Vector_impl" }
%"struct.std::_Vector_base<Yosys::RTLIL::State, std::allocator<Yosys::RTLIL::State>>::_Vector_impl" = type { %"struct.std::_Vector_base<Yosys::RTLIL::State, std::allocator<Yosys::RTLIL::State>>::_Vector_impl_data" }
%"struct.std::_Vector_base<Yosys::RTLIL::State, std::allocator<Yosys::RTLIL::State>>::_Vector_impl_data" = type { ptr, ptr, ptr }
%"class.Yosys::RTLIL::Const::const_iterator" = type { ptr, i64 }

; Function Attrs: mustprogress nounwind uwtable
define linkonce_odr void @_ZN5Yosys5RTLIL5Const14const_iteratorC2ERKS1_m(ptr noundef nonnull align 8 dereferenceable(16) %0, ptr noundef nonnull align 8 dereferenceable(40) %1, i64 noundef %2) unnamed_addr #6 comdat align 2 {
  %4 = alloca ptr, align 8
  %5 = alloca ptr, align 8
  %6 = alloca i64, align 8
  store ptr %0, ptr %4, align 8, !tbaa !62
  store ptr %1, ptr %5, align 8, !tbaa !6
  store i64 %2, ptr %6, align 8, !tbaa !24
  %7 = load ptr, ptr %4, align 8
  %8 = getelementptr inbounds nuw %"class.Yosys::RTLIL::Const::const_iterator", ptr %7, i32 0, i32 0
  %9 = load ptr, ptr %5, align 8, !tbaa !6
  store ptr %9, ptr %8, align 8, !tbaa !6
  %10 = getelementptr inbounds nuw %"class.Yosys::RTLIL::Const::const_iterator", ptr %7, i32 0, i32 1
  %11 = load i64, ptr %6, align 8, !tbaa !24
  store i64 %11, ptr %10, align 8, !tbaa !66
  ret void
}

; Function Attrs: mustprogress nounwind uwtable
define linkonce_odr noundef nonnull align 1 dereferenceable(1) ptr @_ZNSt6vectorIN5Yosys5RTLIL5StateESaIS2_EEixEm(ptr noundef nonnull align 8 dereferenceable(24) %0, i64 noundef %1) #6 comdat align 2 {
  %3 = alloca ptr, align 8
  %4 = alloca i64, align 8
  store ptr %0, ptr %3, align 8, !tbaa !22
  store i64 %1, ptr %4, align 8, !tbaa !24
  %5 = load ptr, ptr %3, align 8
  %6 = getelementptr inbounds nuw %"struct.std::_Vector_base", ptr %5, i32 0, i32 0
  %7 = getelementptr inbounds nuw %"struct.std::_Vector_base<Yosys::RTLIL::State, std::allocator<Yosys::RTLIL::State>>::_Vector_impl_data", ptr %6, i32 0, i32 0
  %8 = load ptr, ptr %7, align 8, !tbaa !26
  %9 = load i64, ptr %4, align 8, !tbaa !24
  %10 = getelementptr inbounds nuw i8, ptr %8, i64 %9
  ret ptr %10
}

; Function Attrs: mustprogress uwtable
define linkonce_odr noundef zeroext i8 @_ZNK5Yosys5RTLIL5ConstixEm(ptr noundef nonnull align 8 dereferenceable(40) %0, i64 noundef %1) #4 comdat align 2 {
  %3 = alloca ptr, align 8
  %4 = alloca i64, align 8
  %5 = alloca %"class.Yosys::RTLIL::Const::const_iterator", align 8
  store ptr %0, ptr %3, align 8, !tbaa !6
  store i64 %1, ptr %4, align 8, !tbaa !24
  %6 = load ptr, ptr %3, align 8
  call void @llvm.lifetime.start.p0(i64 16, ptr %5) #3
  %7 = load i64, ptr %4, align 8, !tbaa !24
  call void @_ZN5Yosys5RTLIL5Const14const_iteratorC2ERKS1_m(ptr noundef nonnull align 8 dereferenceable(16) %5, ptr noundef nonnull align 8 dereferenceable(40) %6, i64 noundef %7)
  %8 = call noundef zeroext i8 @_ZNK5Yosys5RTLIL5Const14const_iteratordeEv(ptr noundef nonnull align 8 dereferenceable(16) %5)
  call void @llvm.lifetime.end.p0(i64 16, ptr %5) #3
  ret i8 %8
}

; Function Attrs: mustprogress uwtable
define void @_ZN5Yosys5RTLIL11const_bweqxERKNS0_5ConstES3_(ptr dead_on_unwind noalias writable sret(%"struct.Yosys::RTLIL::Const") align 8 %0, ptr noundef nonnull align 8 dereferenceable(40) %1, ptr noundef nonnull align 8 dereferenceable(40) %2) #4 personality ptr @__gxx_personality_v0 {
  %4 = alloca ptr, align 8
  %5 = alloca ptr, align 8
  %6 = alloca ptr, align 8
  %7 = alloca i1, align 1
  %8 = alloca i32, align 4
  %9 = alloca ptr, align 8
  %10 = alloca i32, align 4
  store ptr %0, ptr %4, align 8
  store ptr %1, ptr %5, align 8, !tbaa !6
  store ptr %2, ptr %6, align 8, !tbaa !6
  br label %11

11:                                               ; preds = %3
  br label %12

12:                                               ; preds = %11
  store i1 false, ptr %7, align 1
  %13 = load ptr, ptr %5, align 8, !tbaa !6
  %14 = call noundef i32 @_ZNK5Yosys5RTLIL5Const4sizeEv(ptr noundef nonnull align 8 dereferenceable(40) %13)
  call void @_ZN5Yosys5RTLIL5ConstC1ENS0_5StateEi(ptr noundef nonnull align 8 dereferenceable(40) %0, i8 noundef zeroext 0, i32 noundef %14)
  call void @llvm.lifetime.start.p0(i64 4, ptr %8) #3
  store i32 0, ptr %8, align 4, !tbaa !13
  br label %15

15:                                               ; preds = %46, %12
  %16 = load i32, ptr %8, align 4, !tbaa !13
  %17 = load ptr, ptr %5, align 8, !tbaa !6
  %18 = invoke noundef i32 @_ZNK5Yosys5RTLIL5Const4sizeEv(ptr noundef nonnull align 8 dereferenceable(40) %17)
          to label %19 unwind label %22

19:                                               ; preds = %15
  %20 = icmp slt i32 %16, %18
  br i1 %20, label %26, label %21

21:                                               ; preds = %19
  call void @llvm.lifetime.end.p0(i64 4, ptr %8) #3
  br label %49

22:                                               ; preds = %37, %31, %26, %15
  %23 = landingpad { ptr, i32 }
          cleanup
  %24 = extractvalue { ptr, i32 } %23, 0
  store ptr %24, ptr %9, align 8
  %25 = extractvalue { ptr, i32 } %23, 1
  store i32 %25, ptr %10, align 4
  call void @llvm.lifetime.end.p0(i64 4, ptr %8) #3
  call void @_ZN5Yosys5RTLIL5ConstD1Ev(ptr noundef nonnull align 8 dereferenceable(40) %0) #3
  br label %53

26:                                               ; preds = %19
  %27 = load ptr, ptr %5, align 8, !tbaa !6
  %28 = load i32, ptr %8, align 4, !tbaa !13
  %29 = sext i32 %28 to i64
  %30 = invoke noundef zeroext i8 @_ZNK5Yosys5RTLIL5ConstixEm(ptr noundef nonnull align 8 dereferenceable(40) %27, i64 noundef %29)
          to label %31 unwind label %22

31:                                               ; preds = %26
  %32 = zext i8 %30 to i32
  %33 = load ptr, ptr %6, align 8, !tbaa !6
  %34 = load i32, ptr %8, align 4, !tbaa !13
  %35 = sext i32 %34 to i64
  %36 = invoke noundef zeroext i8 @_ZNK5Yosys5RTLIL5ConstixEm(ptr noundef nonnull align 8 dereferenceable(40) %33, i64 noundef %35)
          to label %37 unwind label %22

37:                                               ; preds = %31
  %38 = zext i8 %36 to i32
  %39 = icmp eq i32 %32, %38
  %40 = select i1 %39, i8 1, i8 0
  %41 = invoke noundef nonnull align 8 dereferenceable(24) ptr @_ZN5Yosys5RTLIL5Const4bitsEv(ptr noundef nonnull align 8 dereferenceable(40) %0)
          to label %42 unwind label %22

42:                                               ; preds = %37
  %43 = load i32, ptr %8, align 4, !tbaa !13
  %44 = sext i32 %43 to i64
  %45 = call noundef nonnull align 1 dereferenceable(1) ptr @_ZNSt6vectorIN5Yosys5RTLIL5StateESaIS2_EEixEm(ptr noundef nonnull align 8 dereferenceable(24) %41, i64 noundef %44) #3
  store i8 %40, ptr %45, align 1, !tbaa !17
  br label %46

46:                                               ; preds = %42
  %47 = load i32, ptr %8, align 4, !tbaa !13
  %48 = add nsw i32 %47, 1
  store i32 %48, ptr %8, align 4, !tbaa !13
  br label %15, !llvm.loop !90

49:                                               ; preds = %21
  store i1 true, ptr %7, align 1
  %50 = load i1, ptr %7, align 1
  br i1 %50, label %52, label %51

51:                                               ; preds = %49
  call void @_ZN5Yosys5RTLIL5ConstD1Ev(ptr noundef nonnull align 8 dereferenceable(40) %0) #3
  br label %52

52:                                               ; preds = %51, %49
  ret void

53:                                               ; preds = %22
  %54 = load ptr, ptr %9, align 8
  %55 = load i32, ptr %10, align 4
  %56 = insertvalue { ptr, i32 } poison, ptr %54, 0
  %57 = insertvalue { ptr, i32 } %56, i32 %55, 1
  resume { ptr, i32 } %57
}