; Function Attrs: mustprogress uwtable
define void @_ZN5Yosys5RTLIL11const_bweqxERKNS0_5ConstES3_(ptr dead_on_unwind noalias writable sret(%"struct.Yosys::RTLIL::Const") align 8 %0, ptr noundef nonnull align 8 dereferenceable(40) %1, ptr noundef nonnull align 8 dereferenceable(40) %2) local_unnamed_addr #3 personality ptr @__gxx_personality_v0 {
  %4 = alloca %"class.Yosys::RTLIL::Const::const_iterator", align 8
  %5 = alloca %"class.Yosys::RTLIL::Const::const_iterator", align 8
  %6 = tail call noundef i32 @_ZNK5Yosys5RTLIL5Const4sizeEv(ptr noundef nonnull align 8 dereferenceable(40) %1)
  tail call void @_ZN5Yosys5RTLIL5ConstC1ENS0_5StateEi(ptr noundef nonnull align 8 dereferenceable(40) %0, i8 noundef zeroext 0, i32 noundef %6)
  %7 = getelementptr inbounds nuw i8, ptr %5, i64 8
  %8 = getelementptr inbounds nuw i8, ptr %4, i64 8
  br label %9

9:                                                ; preds = %22, %3
  %indvars.iv = phi i64 [ %indvars.iv.next, %22 ], [ 0, %3 ]
  %10 = invoke noundef i32 @_ZNK5Yosys5RTLIL5Const4sizeEv(ptr noundef nonnull align 8 dereferenceable(40) %1)
          to label %11 unwind label %14

11:                                               ; preds = %9
  %12 = sext i32 %10 to i64
  %13 = icmp slt i64 %indvars.iv, %12
  br i1 %13, label %16, label %27

14:                                               ; preds = %18, %16, %20, %9
  %15 = landingpad { ptr, i32 }
          cleanup
  call void @_ZN5Yosys5RTLIL5ConstD1Ev(ptr noundef nonnull align 8 dereferenceable(40) %0) #19
  resume { ptr, i32 } %15

16:                                               ; preds = %11
  call void @llvm.lifetime.start.p0(i64 16, ptr nonnull %5) #19
  store ptr %1, ptr %5, align 8, !tbaa !20
  store i64 %indvars.iv, ptr %7, align 8, !tbaa !22
  %17 = invoke noundef zeroext i8 @_ZNK5Yosys5RTLIL5Const14const_iteratordeEv(ptr noundef nonnull align 8 dereferenceable(16) %5)
          to label %18 unwind label %14

18:                                               ; preds = %16
  call void @llvm.lifetime.end.p0(i64 16, ptr nonnull %5) #19
  call void @llvm.lifetime.start.p0(i64 16, ptr nonnull %4) #19
  store ptr %2, ptr %4, align 8, !tbaa !20
  store i64 %indvars.iv, ptr %8, align 8, !tbaa !22
  %19 = invoke noundef zeroext i8 @_ZNK5Yosys5RTLIL5Const14const_iteratordeEv(ptr noundef nonnull align 8 dereferenceable(16) %4)
          to label %20 unwind label %14

20:                                               ; preds = %18
  call void @llvm.lifetime.end.p0(i64 16, ptr nonnull %4) #19
  %21 = invoke noundef nonnull align 8 dereferenceable(24) ptr @_ZN5Yosys5RTLIL5Const4bitsEv(ptr noundef nonnull align 8 dereferenceable(40) %0)
          to label %22 unwind label %14

22:                                               ; preds = %20
  %23 = icmp eq i8 %17, %19
  %24 = zext i1 %23 to i8
  %25 = load ptr, ptr %21, align 8, !tbaa !6
  %26 = getelementptr inbounds nuw i8, ptr %25, i64 %indvars.iv
  store i8 %24, ptr %26, align 1, !tbaa !11
  %indvars.iv.next = add nuw nsw i64 %indvars.iv, 1
  br label %9, !llvm.loop !147

27:                                               ; preds = %11
  ret void
}